target datalayout = "e-m:e-p270:32:32-p271:32:32-p272:64:64-i64:64-i128:128-f80:128-n8:16:32:64-S128"
target triple = "x86_64-pc-linux-gnu"

%struct.tls_group_info_st = type { ptr, ptr, ptr, i32, i16, i32, i32, i32, i32, i8 }
%struct.TLS_GROUP_IX = type { ptr, i64 }

; Function Attrs: nounwind uwtable
define internal i32 @tls_group_ix_cmp(ptr noundef %0, ptr noundef %1) #1 {
  %3 = alloca i32, align 4
  %4 = alloca ptr, align 8
  %5 = alloca ptr, align 8
  %6 = alloca i32, align 4
  %7 = alloca i32, align 4
  %8 = alloca i32, align 4
  %9 = alloca i32, align 4
  %10 = alloca i32, align 4
  store ptr %0, ptr %4, align 8, !tbaa !112
  store ptr %1, ptr %5, align 8, !tbaa !112
  call void @llvm.lifetime.start.p0(i64 4, ptr %6) #8
  %11 = load ptr, ptr %4, align 8, !tbaa !112
  %12 = load ptr, ptr %11, align 8, !tbaa !112
  %13 = getelementptr inbounds nuw %struct.TLS_GROUP_IX, ptr %12, i32 0, i32 0
  %14 = load ptr, ptr %13, align 8, !tbaa !167
  %15 = getelementptr inbounds nuw %struct.tls_group_info_st, ptr %14, i32 0, i32 4
  %16 = load i16, ptr %15, align 4, !tbaa !98
  %17 = zext i16 %16 to i32
  %18 = load ptr, ptr %5, align 8, !tbaa !112
  %19 = load ptr, ptr %18, align 8, !tbaa !112
  %20 = getelementptr inbounds nuw %struct.TLS_GROUP_IX, ptr %19, i32 0, i32 0
  %21 = load ptr, ptr %20, align 8, !tbaa !167
  %22 = getelementptr inbounds nuw %struct.tls_group_info_st, ptr %21, i32 0, i32 4
  %23 = load i16, ptr %22, align 4, !tbaa !98
  %24 = zext i16 %23 to i32
  %25 = icmp slt i32 %17, %24
  %26 = zext i1 %25 to i32
  store i32 %26, ptr %6, align 4, !tbaa !128
  call void @llvm.lifetime.start.p0(i64 4, ptr %7) #8
  %27 = load ptr, ptr %5, align 8, !tbaa !112
  %28 = load ptr, ptr %27, align 8, !tbaa !112
  %29 = getelementptr inbounds nuw %struct.TLS_GROUP_IX, ptr %28, i32 0, i32 0
  %30 = load ptr, ptr %29, align 8, !tbaa !167
  %31 = getelementptr inbounds nuw %struct.tls_group_info_st, ptr %30, i32 0, i32 4
  %32 = load i16, ptr %31, align 4, !tbaa !98
  %33 = zext i16 %32 to i32
  %34 = load ptr, ptr %4, align 8, !tbaa !112
  %35 = load ptr, ptr %34, align 8, !tbaa !112
  %36 = getelementptr inbounds nuw %struct.TLS_GROUP_IX, ptr %35, i32 0, i32 0
  %37 = load ptr, ptr %36, align 8, !tbaa !167
  %38 = getelementptr inbounds nuw %struct.tls_group_info_st, ptr %37, i32 0, i32 4
  %39 = load i16, ptr %38, align 4, !tbaa !98
  %40 = zext i16 %39 to i32
  %41 = icmp slt i32 %33, %40
  %42 = zext i1 %41 to i32
  store i32 %42, ptr %7, align 4, !tbaa !128
  call void @llvm.lifetime.start.p0(i64 4, ptr %8) #8
  %43 = load ptr, ptr %4, align 8, !tbaa !112
  %44 = load ptr, ptr %43, align 8, !tbaa !112
  %45 = getelementptr inbounds nuw %struct.TLS_GROUP_IX, ptr %44, i32 0, i32 1
  %46 = load i64, ptr %45, align 8, !tbaa !169
  %47 = load ptr, ptr %5, align 8, !tbaa !112
  %48 = load ptr, ptr %47, align 8, !tbaa !112
  %49 = getelementptr inbounds nuw %struct.TLS_GROUP_IX, ptr %48, i32 0, i32 1
  %50 = load i64, ptr %49, align 8, !tbaa !169
  %51 = icmp ult i64 %46, %50
  %52 = zext i1 %51 to i32
  store i32 %52, ptr %8, align 4, !tbaa !128
  call void @llvm.lifetime.start.p0(i64 4, ptr %9) #8
  %53 = load ptr, ptr %5, align 8, !tbaa !112
  %54 = load ptr, ptr %53, align 8, !tbaa !112
  %55 = getelementptr inbounds nuw %struct.TLS_GROUP_IX, ptr %54, i32 0, i32 1
  %56 = load i64, ptr %55, align 8, !tbaa !169
  %57 = load ptr, ptr %4, align 8, !tbaa !112
  %58 = load ptr, ptr %57, align 8, !tbaa !112
  %59 = getelementptr inbounds nuw %struct.TLS_GROUP_IX, ptr %58, i32 0, i32 1
  %60 = load i64, ptr %59, align 8, !tbaa !169
  %61 = icmp ult i64 %56, %60
  %62 = zext i1 %61 to i32
  store i32 %62, ptr %9, align 4, !tbaa !128
  %63 = load i32, ptr %6, align 4, !tbaa !128
  %64 = load i32, ptr %7, align 4, !tbaa !128
  %65 = icmp ne i32 %63, %64
  br i1 %65, label %66, label %70

66:                                               ; preds = %2
  %67 = load i32, ptr %7, align 4, !tbaa !128
  %68 = load i32, ptr %6, align 4, !tbaa !128
  %69 = sub nsw i32 %67, %68
  store i32 %69, ptr %3, align 4
  store i32 1, ptr %10, align 4
  br label %74

70:                                               ; preds = %2
  %71 = load i32, ptr %9, align 4, !tbaa !128
  %72 = load i32, ptr %8, align 4, !tbaa !128
  %73 = sub nsw i32 %71, %72
  store i32 %73, ptr %3, align 4
  store i32 1, ptr %10, align 4
  br label %74

74:                                               ; preds = %70, %66
  call void @llvm.lifetime.end.p0(i64 4, ptr %9) #8
  call void @llvm.lifetime.end.p0(i64 4, ptr %8) #8
  call void @llvm.lifetime.end.p0(i64 4, ptr %7) #8
  call void @llvm.lifetime.end.p0(i64 4, ptr %6) #8
  %75 = load i32, ptr %3, align 4
  ret i32 %75
}