; Function Attrs: mustprogress nofree norecurse nosync nounwind willreturn memory(read, inaccessiblemem: none) uwtable
define internal range(i32 -1, 2) i32 @tls_group_ix_cmp(ptr noundef readonly captures(none) %0, ptr noundef readonly captures(none) %1) #9 {
  %3 = load ptr, ptr %0, align 8, !tbaa !150
  %4 = load ptr, ptr %3, align 8, !tbaa !143
  %5 = getelementptr inbounds nuw i8, ptr %4, i64 28
  %6 = load i16, ptr %5, align 4, !tbaa !96
  %7 = load ptr, ptr %1, align 8, !tbaa !150
  %8 = load ptr, ptr %7, align 8, !tbaa !143
  %9 = getelementptr inbounds nuw i8, ptr %8, i64 28
  %10 = load i16, ptr %9, align 4, !tbaa !96
  %.not16 = icmp eq i16 %10, %6
  br i1 %.not16, label %13, label %11

11:                                               ; preds = %2
  %12 = tail call i32 @llvm.ucmp.i32.i16(i16 %6, i16 %10)
  br label %19

13:                                               ; preds = %2
  %14 = getelementptr inbounds nuw i8, ptr %7, i64 8
  %15 = load i64, ptr %14, align 8, !tbaa !145
  %16 = getelementptr inbounds nuw i8, ptr %3, i64 8
  %17 = load i64, ptr %16, align 8, !tbaa !145
  %18 = tail call i32 @llvm.ucmp.i32.i64(i64 %17, i64 %15)
  br label %19

19:                                               ; preds = %13, %11
  %.0 = phi i32 [ %12, %11 ], [ %18, %13 ]
  ret i32 %.0
}